target datalayout = "e-m:e-p270:32:32-p271:32:32-p272:64:64-i64:64-i128:128-f80:128-n8:16:32:64-S128"
target triple = "x86_64-pc-linux-gnu"

%struct.qtest_fault = type { ptr, %struct.quic_pkt_hdr_st, %struct.ossl_qtx_iovec_st, i64, ptr, ptr, ptr, i64, i64, ptr, ptr, ptr, ptr, ptr, ptr, ptr, ptr, %struct.bio_msg_st, i64, %struct.noise_args_data_st }
%struct.quic_pkt_hdr_st = type { i32, i32, %struct.quic_conn_id_st, %struct.quic_conn_id_st, [4 x i8], ptr, i64, i64, ptr }
%struct.quic_conn_id_st = type { i8, [20 x i8] }
%struct.ossl_qtx_iovec_st = type { ptr, i64 }
%struct.bio_msg_st = type { ptr, i64, ptr, ptr, i64 }
%struct.noise_args_data_st = type { ptr, ptr, ptr, i32 }

@.str = private unnamed_addr constant [38 x i8] c"../openssl/test/helpers/quictestlib.c\00", align 1

; Function Attrs: nounwind uwtable
define internal i32 @packet_plain_mutate(ptr noundef %0, ptr noundef %1, i64 noundef %2, ptr noundef %3, ptr noundef %4, ptr noundef %5, ptr noundef %6) #0 {
  %8 = alloca i32, align 4
  %9 = alloca ptr, align 8
  %10 = alloca ptr, align 8
  %11 = alloca i64, align 8
  %12 = alloca ptr, align 8
  %13 = alloca ptr, align 8
  %14 = alloca ptr, align 8
  %15 = alloca ptr, align 8
  %16 = alloca ptr, align 8
  %17 = alloca i64, align 8
  %18 = alloca i64, align 8
  %19 = alloca ptr, align 8
  %20 = alloca i32, align 4
  store ptr %0, ptr %9, align 8, !tbaa !93
  store ptr %1, ptr %10, align 8, !tbaa !95
  store i64 %2, ptr %11, align 8, !tbaa !62
  store ptr %3, ptr %12, align 8, !tbaa !97
  store ptr %4, ptr %13, align 8, !tbaa !99
  store ptr %5, ptr %14, align 8, !tbaa !80
  store ptr %6, ptr %15, align 8, !tbaa !56
  call void @llvm.lifetime.start.p0(i64 8, ptr %16) #8
  %21 = load ptr, ptr %15, align 8, !tbaa !56
  store ptr %21, ptr %16, align 8, !tbaa !33
  call void @llvm.lifetime.start.p0(i64 8, ptr %17) #8
  call void @llvm.lifetime.start.p0(i64 8, ptr %18) #8
  store i64 0, ptr %18, align 8, !tbaa !62
  call void @llvm.lifetime.start.p0(i64 8, ptr %19) #8
  store i64 0, ptr %17, align 8, !tbaa !62
  br label %22

22:                                               ; preds = %34, %7
  %23 = load i64, ptr %17, align 8, !tbaa !62
  %24 = load i64, ptr %11, align 8, !tbaa !62
  %25 = icmp ult i64 %23, %24
  br i1 %25, label %26, label %37

26:                                               ; preds = %22
  %27 = load ptr, ptr %10, align 8, !tbaa !95
  %28 = load i64, ptr %17, align 8, !tbaa !62
  %29 = getelementptr inbounds nuw %struct.ossl_qtx_iovec_st, ptr %27, i64 %28
  %30 = getelementptr inbounds nuw %struct.ossl_qtx_iovec_st, ptr %29, i32 0, i32 1
  %31 = load i64, ptr %30, align 8, !tbaa !101
  %32 = load i64, ptr %18, align 8, !tbaa !62
  %33 = add i64 %32, %31
  store i64 %33, ptr %18, align 8, !tbaa !62
  br label %34

34:                                               ; preds = %26
  %35 = load i64, ptr %17, align 8, !tbaa !62
  %36 = add i64 %35, 1
  store i64 %36, ptr %17, align 8, !tbaa !62
  br label %22, !llvm.loop !102

37:                                               ; preds = %22
  %38 = load i64, ptr %18, align 8, !tbaa !62
  %39 = load ptr, ptr %16, align 8, !tbaa !33
  %40 = getelementptr inbounds nuw %struct.qtest_fault, ptr %39, i32 0, i32 2
  %41 = getelementptr inbounds nuw %struct.ossl_qtx_iovec_st, ptr %40, i32 0, i32 1
  store i64 %38, ptr %41, align 8, !tbaa !88
  %42 = load i64, ptr %18, align 8, !tbaa !62
  %43 = add i64 %42, 1024
  store i64 %43, ptr %18, align 8, !tbaa !62
  %44 = load i64, ptr %18, align 8, !tbaa !62
  %45 = call noalias ptr @CRYPTO_malloc(i64 noundef %44, ptr noundef @.str, i32 noundef 747)
  store ptr %45, ptr %19, align 8, !tbaa !11
  %46 = load ptr, ptr %16, align 8, !tbaa !33
  %47 = getelementptr inbounds nuw %struct.qtest_fault, ptr %46, i32 0, i32 2
  %48 = getelementptr inbounds nuw %struct.ossl_qtx_iovec_st, ptr %47, i32 0, i32 0
  store ptr %45, ptr %48, align 8, !tbaa !87
  %49 = load ptr, ptr %19, align 8, !tbaa !11
  %50 = icmp eq ptr %49, null
  br i1 %50, label %51, label %55

51:                                               ; preds = %37
  %52 = load ptr, ptr %16, align 8, !tbaa !33
  %53 = getelementptr inbounds nuw %struct.qtest_fault, ptr %52, i32 0, i32 2
  %54 = getelementptr inbounds nuw %struct.ossl_qtx_iovec_st, ptr %53, i32 0, i32 1
  store i64 0, ptr %54, align 8, !tbaa !88
  store i32 0, ptr %8, align 4
  store i32 1, ptr %20, align 4
  br label %122

55:                                               ; preds = %37
  %56 = load i64, ptr %18, align 8, !tbaa !62
  %57 = load ptr, ptr %16, align 8, !tbaa !33
  %58 = getelementptr inbounds nuw %struct.qtest_fault, ptr %57, i32 0, i32 3
  store i64 %56, ptr %58, align 8, !tbaa !89
  store i64 0, ptr %17, align 8, !tbaa !62
  br label %59

59:                                               ; preds = %82, %55
  %60 = load i64, ptr %17, align 8, !tbaa !62
  %61 = load i64, ptr %11, align 8, !tbaa !62
  %62 = icmp ult i64 %60, %61
  br i1 %62, label %63, label %85

63:                                               ; preds = %59
  %64 = load ptr, ptr %19, align 8, !tbaa !11
  %65 = load ptr, ptr %10, align 8, !tbaa !95
  %66 = load i64, ptr %17, align 8, !tbaa !62
  %67 = getelementptr inbounds nuw %struct.ossl_qtx_iovec_st, ptr %65, i64 %66
  %68 = getelementptr inbounds nuw %struct.ossl_qtx_iovec_st, ptr %67, i32 0, i32 0
  %69 = load ptr, ptr %68, align 8, !tbaa !103
  %70 = load ptr, ptr %10, align 8, !tbaa !95
  %71 = load i64, ptr %17, align 8, !tbaa !62
  %72 = getelementptr inbounds nuw %struct.ossl_qtx_iovec_st, ptr %70, i64 %71
  %73 = getelementptr inbounds nuw %struct.ossl_qtx_iovec_st, ptr %72, i32 0, i32 1
  %74 = load i64, ptr %73, align 8, !tbaa !101
  call void @llvm.memcpy.p0.p0.i64(ptr align 1 %64, ptr align 1 %69, i64 %74, i1 false)
  %75 = load ptr, ptr %10, align 8, !tbaa !95
  %76 = load i64, ptr %17, align 8, !tbaa !62
  %77 = getelementptr inbounds nuw %struct.ossl_qtx_iovec_st, ptr %75, i64 %76
  %78 = getelementptr inbounds nuw %struct.ossl_qtx_iovec_st, ptr %77, i32 0, i32 1
  %79 = load i64, ptr %78, align 8, !tbaa !101
  %80 = load ptr, ptr %19, align 8, !tbaa !11
  %81 = getelementptr inbounds nuw i8, ptr %80, i64 %79
  store ptr %81, ptr %19, align 8, !tbaa !11
  br label %82

82:                                               ; preds = %63
  %83 = load i64, ptr %17, align 8, !tbaa !62
  %84 = add i64 %83, 1
  store i64 %84, ptr %17, align 8, !tbaa !62
  br label %59, !llvm.loop !104

85:                                               ; preds = %59
  %86 = load ptr, ptr %16, align 8, !tbaa !33
  %87 = getelementptr inbounds nuw %struct.qtest_fault, ptr %86, i32 0, i32 1
  %88 = load ptr, ptr %9, align 8, !tbaa !93
  call void @llvm.memcpy.p0.p0.i64(ptr align 8 %87, ptr align 8 %88, i64 88, i1 false), !tbaa.struct !105
  %89 = load ptr, ptr %16, align 8, !tbaa !33
  %90 = getelementptr inbounds nuw %struct.qtest_fault, ptr %89, i32 0, i32 4
  %91 = load ptr, ptr %90, align 8, !tbaa !91
  %92 = icmp ne ptr %91, null
  br i1 %92, label %93, label %114

93:                                               ; preds = %85
  %94 = load ptr, ptr %16, align 8, !tbaa !33
  %95 = getelementptr inbounds nuw %struct.qtest_fault, ptr %94, i32 0, i32 4
  %96 = load ptr, ptr %95, align 8, !tbaa !91
  %97 = load ptr, ptr %16, align 8, !tbaa !33
  %98 = load ptr, ptr %16, align 8, !tbaa !33
  %99 = getelementptr inbounds nuw %struct.qtest_fault, ptr %98, i32 0, i32 1
  %100 = load ptr, ptr %16, align 8, !tbaa !33
  %101 = getelementptr inbounds nuw %struct.qtest_fault, ptr %100, i32 0, i32 2
  %102 = getelementptr inbounds nuw %struct.ossl_qtx_iovec_st, ptr %101, i32 0, i32 0
  %103 = load ptr, ptr %102, align 8, !tbaa !87
  %104 = load ptr, ptr %16, align 8, !tbaa !33
  %105 = getelementptr inbounds nuw %struct.qtest_fault, ptr %104, i32 0, i32 2
  %106 = getelementptr inbounds nuw %struct.ossl_qtx_iovec_st, ptr %105, i32 0, i32 1
  %107 = load i64, ptr %106, align 8, !tbaa !88
  %108 = load ptr, ptr %16, align 8, !tbaa !33
  %109 = getelementptr inbounds nuw %struct.qtest_fault, ptr %108, i32 0, i32 5
  %110 = load ptr, ptr %109, align 8, !tbaa !92
  %111 = call i32 %96(ptr noundef %97, ptr noundef %99, ptr noundef %103, i64 noundef %107, ptr noundef %110)
  %112 = icmp ne i32 %111, 0
  br i1 %112, label %114, label %113

113:                                              ; preds = %93
  store i32 0, ptr %8, align 4
  store i32 1, ptr %20, align 4
  br label %122

114:                                              ; preds = %93, %85
  %115 = load ptr, ptr %16, align 8, !tbaa !33
  %116 = getelementptr inbounds nuw %struct.qtest_fault, ptr %115, i32 0, i32 1
  %117 = load ptr, ptr %12, align 8, !tbaa !97
  store ptr %116, ptr %117, align 8, !tbaa !93
  %118 = load ptr, ptr %16, align 8, !tbaa !33
  %119 = getelementptr inbounds nuw %struct.qtest_fault, ptr %118, i32 0, i32 2
  %120 = load ptr, ptr %13, align 8, !tbaa !99
  store ptr %119, ptr %120, align 8, !tbaa !95
  %121 = load ptr, ptr %14, align 8, !tbaa !80
  store i64 1, ptr %121, align 8, !tbaa !62
  store i32 1, ptr %8, align 4
  store i32 1, ptr %20, align 4
  br label %122

122:                                              ; preds = %114, %113, %51
  call void @llvm.lifetime.end.p0(i64 8, ptr %19) #8
  call void @llvm.lifetime.end.p0(i64 8, ptr %18) #8
  call void @llvm.lifetime.end.p0(i64 8, ptr %17) #8
  call void @llvm.lifetime.end.p0(i64 8, ptr %16) #8
  %123 = load i32, ptr %8, align 4
  ret i32 %123
}